target datalayout = "e-m:e-p270:32:32-p271:32:32-p272:64:64-i64:64-i128:128-f80:128-n8:16:32:64-S128"
target triple = "x86_64-pc-linux-gnu"

; Function Attrs: nounwind sspstrong uwtable
define dso_local void @tcg_gen_vec_add16_i32(ptr noundef %0, ptr noundef %1, ptr noundef %2) #0 {
  %4 = alloca ptr, align 8
  %5 = alloca ptr, align 8
  %6 = alloca ptr, align 8
  %7 = alloca ptr, align 8
  %8 = alloca ptr, align 8
  store ptr %0, ptr %4, align 8
  store ptr %1, ptr %5, align 8
  store ptr %2, ptr %6, align 8
  call void @llvm.lifetime.start.p0(i64 8, ptr %7) #10
  %9 = call ptr @tcg_temp_ebb_new_i32()
  store ptr %9, ptr %7, align 8
  call void @llvm.lifetime.start.p0(i64 8, ptr %8) #10
  %10 = call ptr @tcg_temp_ebb_new_i32()
  store ptr %10, ptr %8, align 8
  %11 = load ptr, ptr %7, align 8
  %12 = load ptr, ptr %5, align 8
  call void @tcg_gen_andi_i32(ptr noundef %11, ptr noundef %12, i32 noundef -65536)
  %13 = load ptr, ptr %8, align 8
  %14 = load ptr, ptr %5, align 8
  %15 = load ptr, ptr %6, align 8
  call void @tcg_gen_add_i32(ptr noundef %13, ptr noundef %14, ptr noundef %15)
  %16 = load ptr, ptr %7, align 8
  %17 = load ptr, ptr %7, align 8
  %18 = load ptr, ptr %6, align 8
  call void @tcg_gen_add_i32(ptr noundef %16, ptr noundef %17, ptr noundef %18)
  %19 = load ptr, ptr %4, align 8
  %20 = load ptr, ptr %7, align 8
  %21 = load ptr, ptr %8, align 8
  call void @tcg_gen_deposit_i32(ptr noundef %19, ptr noundef %20, ptr noundef %21, i32 noundef 0, i32 noundef 16)
  %22 = load ptr, ptr %7, align 8
  call void @tcg_temp_free_i32(ptr noundef %22)
  %23 = load ptr, ptr %8, align 8
  call void @tcg_temp_free_i32(ptr noundef %23)
  call void @llvm.lifetime.end.p0(i64 8, ptr %8) #10
  call void @llvm.lifetime.end.p0(i64 8, ptr %7) #10
  ret void
}